	.file	"double-map.c"
	.text
.Ltext0:
	.section	.text.unlikely,"ax",@progbits
.LCOLDB0:
	.text
.LHOTB0:
	.p2align 4,,15
	.section	.text.unlikely
.Ltext_cold0:
	.text
	.globl	dmap_allocate
	.type	dmap_allocate, @function
dmap_allocate:
.LFB37:
	.file 1 "lib/containers/double-map.c"
	.loc 1 302 0
	.cfi_startproc
.LVL0:
	pushq	%r15
	.cfi_def_cfa_offset 16
	.cfi_offset 15, -16
	pushq	%r14
	.cfi_def_cfa_offset 24
	.cfi_offset 14, -24
	movl	%r8d, %r14d
	pushq	%r13
	.cfi_def_cfa_offset 32
	.cfi_offset 13, -32
	pushq	%r12
	.cfi_def_cfa_offset 40
	.cfi_offset 12, -40
	.loc 1 308 0
	xorl	%r13d, %r13d
	.loc 1 302 0
	pushq	%rbp
	.cfi_def_cfa_offset 48
	.cfi_offset 6, -48
	pushq	%rbx
	.cfi_def_cfa_offset 56
	.cfi_offset 3, -56
	subq	$120, %rsp
	.cfi_def_cfa_offset 176
	.loc 1 306 0
	movq	216(%rsp), %rax
	.loc 1 302 0
	movq	%rdi, 48(%rsp)
	.loc 1 307 0
	movl	$176, %edi
.LVL1:
	.loc 1 302 0
	movq	%rsi, 56(%rsp)
	movq	%rdx, 64(%rsp)
	movq	%rcx, 72(%rsp)
	movl	%r8d, 84(%rsp)
	.loc 1 306 0
	movq	(%rax), %rax
	.loc 1 302 0
	movq	%r9, 88(%rsp)
	.loc 1 306 0
	movq	%rax, 24(%rsp)
.LVL2:
	.loc 1 307 0
	call	malloc
.LVL3:
	.loc 1 308 0
	testq	%rax, %rax
	je	.L2
	.loc 1 312 0
	movl	200(%rsp), %edi
	movq	%rax, %rbx
	.loc 1 309 0
	movq	216(%rsp), %rax
.LVL4:
	.loc 1 312 0
	imull	%r14d, %edi
	.loc 1 309 0
	movq	%rbx, (%rax)
	.loc 1 312 0
	movslq	%edi, %rdi
	call	malloc
.LVL5:
	.loc 1 313 0
	testq	%rax, %rax
	.loc 1 312 0
	movq	%rax, %r12
.LVL6:
	.loc 1 313 0
	je	.L17
	.loc 1 319 0
	movslq	208(%rsp), %r15
	.loc 1 318 0
	movq	%rax, 24(%rbx)
	.loc 1 319 0
	leaq	0(,%r15,4), %rbp
	movq	%rbp, %rdi
	call	malloc
.LVL7:
	.loc 1 320 0
	testq	%rax, %rax
	.loc 1 319 0
	movq	%rax, %r14
.LVL8:
	.loc 1 320 0
	je	.L18
	.loc 1 327 0
	salq	$3, %r15
	.loc 1 326 0
	movq	%rax, 32(%rbx)
	.loc 1 327 0
	movq	%r15, %rdi
	call	malloc
.LVL9:
	.loc 1 328 0
	testq	%rax, %rax
	.loc 1 327 0
	movq	%rax, 8(%rsp)
.LVL10:
	.loc 1 328 0
	je	.L21
	.loc 1 335 0
	movq	8(%rsp), %rax
	.loc 1 336 0
	movq	%rbp, %rdi
	.loc 1 335 0
	movq	%rax, 40(%rbx)
	.loc 1 336 0
	call	malloc
.LVL11:
	.loc 1 337 0
	testq	%rax, %rax
	.loc 1 336 0
	movq	%rax, 16(%rsp)
.LVL12:
	.loc 1 337 0
	je	.L25
	.loc 1 345 0
	movq	16(%rsp), %rax
	.loc 1 346 0
	movq	%rbp, %rdi
	.loc 1 345 0
	movq	%rax, 48(%rbx)
	.loc 1 346 0
	call	malloc
.LVL13:
	.loc 1 347 0
	testq	%rax, %rax
	.loc 1 346 0
	movq	%rax, 32(%rsp)
.LVL14:
	.loc 1 347 0
	je	.L22
	.loc 1 356 0
	movq	32(%rsp), %rax
	.loc 1 357 0
	movq	%rbp, %rdi
	.loc 1 356 0
	movq	%rax, 56(%rbx)
	.loc 1 357 0
	call	malloc
.LVL15:
	.loc 1 358 0
	testq	%rax, %rax
	.loc 1 357 0
	movq	%rax, 40(%rsp)
.LVL16:
	.loc 1 358 0
	je	.L23
	.loc 1 368 0
	movq	40(%rsp), %rax
	.loc 1 369 0
	movq	%rbp, %rdi
	.loc 1 368 0
	movq	%rax, 64(%rbx)
	.loc 1 369 0
	call	malloc
.LVL17:
	.loc 1 370 0
	testq	%rax, %rax
	.loc 1 369 0
	movq	%rax, 96(%rsp)
.LVL18:
	.loc 1 370 0
	je	.L20
	.loc 1 381 0
	movq	96(%rsp), %rax
	.loc 1 382 0
	movq	%r15, %rdi
	.loc 1 381 0
	movq	%rax, 88(%rbx)
	.loc 1 382 0
	call	malloc
.LVL19:
	.loc 1 383 0
	testq	%rax, %rax
	.loc 1 382 0
	movq	%rax, %r15
.LVL20:
	.loc 1 383 0
	je	.L26
	.loc 1 395 0
	movq	%rax, 96(%rbx)
	.loc 1 396 0
	movq	%rbp, %rdi
	call	malloc
.LVL21:
	.loc 1 397 0
	testq	%rax, %rax
	.loc 1 396 0
	movq	%rax, %r13
.LVL22:
	.loc 1 397 0
	je	.L27
	.loc 1 410 0
	movq	%rax, 104(%rbx)
	.loc 1 411 0
	movq	%rbp, %rdi
	call	malloc
.LVL23:
	.loc 1 412 0
	testq	%rax, %rax
	je	.L19
	.loc 1 426 0
	movq	%rax, 120(%rbx)
	.loc 1 427 0
	movq	%rbp, %rdi
	.loc 1 426 0
	movq	%rax, 104(%rsp)
	.loc 1 427 0
	call	malloc
.LVL24:
	.loc 1 428 0
	testq	%rax, %rax
	movq	104(%rsp), %rdx
	je	.L28
	.loc 1 443 0
	movq	%rax, 112(%rbx)
	.loc 1 446 0
	movq	56(%rsp), %rax
.LVL25:
	.loc 1 460 0
	subq	$8, %rsp
	.cfi_def_cfa_offset 184
	.loc 1 445 0
	movq	56(%rsp), %rsi
	.loc 1 460 0
	movq	%r14, %rdi
	.loc 1 485 0
	movl	$1, %r13d
.LVL26:
	.loc 1 446 0
	movq	%rax, 80(%rbx)
	.loc 1 447 0
	movq	72(%rsp), %rax
	.loc 1 445 0
	movq	%rsi, 72(%rbx)
	.loc 1 447 0
	movq	%rax, 128(%rbx)
	.loc 1 448 0
	movq	80(%rsp), %rax
	movq	%rax, 136(%rbx)
	.loc 1 449 0
	movl	92(%rsp), %eax
	movl	%eax, (%rbx)
	.loc 1 450 0
	movq	96(%rsp), %rax
	movq	%rax, 8(%rbx)
	.loc 1 451 0
	movq	184(%rsp), %rax
	movq	%rax, 16(%rbx)
	.loc 1 452 0
	movq	192(%rsp), %rax
	movq	%rax, 144(%rbx)
	.loc 1 453 0
	movq	200(%rsp), %rax
	movq	%rax, 152(%rbx)
	.loc 1 454 0
	movl	208(%rsp), %eax
	movl	%eax, 164(%rbx)
	.loc 1 455 0
	movl	216(%rsp), %eax
	movl	%eax, 168(%rbx)
	.loc 1 460 0
	movl	216(%rsp), %eax
	pushq	%rax
	.cfi_def_cfa_offset 192
	movq	56(%rsp), %r9
	movq	48(%rsp), %r8
	movq	32(%rsp), %rcx
	movq	24(%rsp), %rdx
	call	map_impl_init
.LVL27:
	.loc 1 470 0
	movq	232(%rsp), %rax
	movq	(%rax), %rax
	.loc 1 467 0
	movl	168(%rax), %r8d
	movq	96(%rax), %rdx
	movq	104(%rax), %rcx
	movq	128(%rax), %rsi
	movq	88(%rax), %rdi
	movq	120(%rax), %r9
	movl	%r8d, (%rsp)
	movq	112(%rax), %r8
	call	map_impl_init
.LVL28:
	.loc 1 472 0
	movq	232(%rsp), %rax
	movq	(%rax), %rax
	movl	$0, 160(%rax)
	.loc 1 485 0
	popq	%rax
	.cfi_def_cfa_offset 184
	popq	%rdx
	.cfi_def_cfa_offset 176
.LVL29:
.L2:
	.loc 1 486 0
	addq	$120, %rsp
	.cfi_remember_state
	.cfi_def_cfa_offset 56
	movl	%r13d, %eax
	popq	%rbx
	.cfi_def_cfa_offset 48
	popq	%rbp
	.cfi_def_cfa_offset 40
	popq	%r12
	.cfi_def_cfa_offset 32
	popq	%r13
	.cfi_def_cfa_offset 24
	popq	%r14
	.cfi_def_cfa_offset 16
	popq	%r15
	.cfi_def_cfa_offset 8
	ret
.LVL30:
	.p2align 4,,10
	.p2align 3
.L25:
	.cfi_restore_state
	.loc 1 338 0
	movq	8(%rsp), %rdi
	call	free
.LVL31:
.L21:
	.loc 1 339 0
	movq	%r14, %rdi
	call	free
.LVL32:
.L18:
	.loc 1 321 0
	movq	%r12, %rdi
	call	free
.LVL33:
.L17:
	.loc 1 322 0
	movq	%rbx, %rdi
	call	free
.LVL34:
	.loc 1 323 0
	movq	216(%rsp), %rax
	movq	24(%rsp), %rcx
	movq	%rcx, (%rax)
	.loc 1 324 0
	jmp	.L2
.LVL35:
	.p2align 4,,10
	.p2align 3
.L26:
	.loc 1 384 0
	movq	96(%rsp), %rdi
	call	free
.LVL36:
	.loc 1 385 0
	movq	40(%rsp), %rdi
	call	free
.LVL37:
.L23:
	.loc 1 386 0
	movq	32(%rsp), %rdi
	call	free
.LVL38:
.L22:
	.loc 1 387 0
	movq	16(%rsp), %rdi
	call	free
.LVL39:
	.loc 1 388 0
	movq	8(%rsp), %rdi
	call	free
.LVL40:
	.loc 1 389 0
	movq	%r14, %rdi
	call	free
.LVL41:
	.loc 1 321 0
	movq	%r12, %rdi
	call	free
.LVL42:
	jmp	.L17
.LVL43:
	.p2align 4,,10
	.p2align 3
.L27:
	.loc 1 398 0
	movq	%r15, %rdi
	call	free
.LVL44:
	.loc 1 399 0
	movq	96(%rsp), %rdi
	call	free
.LVL45:
.L20:
	.loc 1 400 0
	movq	40(%rsp), %rdi
	call	free
.LVL46:
	.loc 1 401 0
	movq	32(%rsp), %rdi
	call	free
.LVL47:
	.loc 1 402 0
	movq	16(%rsp), %rdi
	call	free
.LVL48:
	.loc 1 403 0
	movq	8(%rsp), %rdi
	call	free
.LVL49:
	.loc 1 404 0
	movq	%r14, %rdi
	call	free
.LVL50:
	.loc 1 405 0
	movq	%r12, %rdi
	call	free
.LVL51:
	.loc 1 406 0
	movq	%rbx, %rdi
	call	free
.LVL52:
	.loc 1 407 0
	movq	216(%rsp), %rax
	movq	24(%rsp), %rsi
	movq	%rsi, (%rax)
	.loc 1 408 0
	jmp	.L2
.LVL53:
	.p2align 4,,10
	.p2align 3
.L28:
	.loc 1 429 0
	movq	%rdx, %rdi
	call	free
.LVL54:
.L19:
	.loc 1 430 0
	movq	%r13, %rdi
	.loc 1 441 0
	xorl	%r13d, %r13d
.LVL55:
	.loc 1 430 0
	call	free
.LVL56:
	.loc 1 431 0
	movq	%r15, %rdi
	call	free
.LVL57:
	.loc 1 432 0
	movq	96(%rsp), %rdi
	call	free
.LVL58:
	.loc 1 433 0
	movq	40(%rsp), %rdi
	call	free
.LVL59:
	.loc 1 434 0
	movq	32(%rsp), %rdi
	call	free
.LVL60:
	.loc 1 435 0
	movq	16(%rsp), %rdi
	call	free
.LVL61:
	.loc 1 436 0
	movq	8(%rsp), %rdi
	call	free
.LVL62:
	.loc 1 437 0
	movq	%r14, %rdi
	call	free
.LVL63:
	.loc 1 438 0
	movq	%r12, %rdi
	call	free
.LVL64:
	.loc 1 439 0
	movq	%rbx, %rdi
	call	free
.LVL65:
	.loc 1 440 0
	movq	216(%rsp), %rax
	movq	24(%rsp), %rcx
	movq	%rcx, (%rax)
	.loc 1 441 0
	jmp	.L2
	.cfi_endproc
.LFE37:
	.size	dmap_allocate, .-dmap_allocate
	.section	.text.unlikely
.LCOLDE0:
	.text
.LHOTE0:
	.section	.text.unlikely
.LCOLDB1:
	.text
.LHOTB1:
	.p2align 4,,15
	.globl	dmap_get_a
	.type	dmap_get_a, @function
dmap_get_a:
.LFB38:
	.loc 1 524 0
	.cfi_startproc
.LVL66:
	pushq	%r12
	.cfi_def_cfa_offset 16
	.cfi_offset 12, -16
	pushq	%rbp
	.cfi_def_cfa_offset 24
	.cfi_offset 6, -24
	movq	%rdx, %r12
	pushq	%rbx
	.cfi_def_cfa_offset 32
	.cfi_offset 3, -32
	.loc 1 524 0
	movq	%rdi, %rbx
.LVL67:
	movq	%rsi, %rbp
	.loc 1 531 0
	movq	%rsi, %rdi
.LVL68:
	call	*80(%rbx)
.LVL69:
	.loc 1 533 0
	movl	168(%rbx), %r8d
	movq	56(%rbx), %rcx
	movq	%rbp, %r9
	movq	48(%rbx), %rdx
	movq	40(%rbx), %rsi
	movq	32(%rbx), %rdi
	pushq	%r8
	.cfi_def_cfa_offset 40
	movq	64(%rbx), %r8
	pushq	%r12
	.cfi_def_cfa_offset 48
	pushq	%rax
	.cfi_def_cfa_offset 56
	pushq	72(%rbx)
	.cfi_def_cfa_offset 64
	call	map_impl_get
.LVL70:
	.loc 1 539 0
	addq	$32, %rsp
	.cfi_def_cfa_offset 32
	.loc 1 540 0
	popq	%rbx
	.cfi_def_cfa_offset 24
.LVL71:
	popq	%rbp
	.cfi_def_cfa_offset 16
.LVL72:
	popq	%r12
	.cfi_def_cfa_offset 8
.LVL73:
	ret
	.cfi_endproc
.LFE38:
	.size	dmap_get_a, .-dmap_get_a
	.section	.text.unlikely
.LCOLDE1:
	.text
.LHOTE1:
	.section	.text.unlikely
.LCOLDB2:
	.text
.LHOTB2:
	.p2align 4,,15
	.globl	dmap_get_b
	.type	dmap_get_b, @function
dmap_get_b:
.LFB39:
	.loc 1 558 0
	.cfi_startproc
.LVL74:
	pushq	%r12
	.cfi_def_cfa_offset 16
	.cfi_offset 12, -16
	pushq	%rbp
	.cfi_def_cfa_offset 24
	.cfi_offset 6, -24
	movq	%rdx, %r12
	pushq	%rbx
	.cfi_def_cfa_offset 32
	.cfi_offset 3, -32
	.loc 1 558 0
	movq	%rdi, %rbx
.LVL75:
	movq	%rsi, %rbp
	.loc 1 565 0
	movq	%rsi, %rdi
.LVL76:
	call	*136(%rbx)
.LVL77:
	.loc 1 578 0
	movl	168(%rbx), %r8d
	movq	112(%rbx), %rcx
	movq	%rbp, %r9
	movq	104(%rbx), %rdx
	movq	96(%rbx), %rsi
	movq	88(%rbx), %rdi
	pushq	%r8
	.cfi_def_cfa_offset 40
	movq	120(%rbx), %r8
	pushq	%r12
	.cfi_def_cfa_offset 48
	pushq	%rax
	.cfi_def_cfa_offset 56
	pushq	128(%rbx)
	.cfi_def_cfa_offset 64
	call	map_impl_get
.LVL78:
	addq	$32, %rsp
	.cfi_def_cfa_offset 32
	.loc 1 585 0
	popq	%rbx
	.cfi_def_cfa_offset 24
.LVL79:
	popq	%rbp
	.cfi_def_cfa_offset 16
.LVL80:
	popq	%r12
	.cfi_def_cfa_offset 8
.LVL81:
	ret
	.cfi_endproc
.LFE39:
	.size	dmap_get_b, .-dmap_get_b
	.section	.text.unlikely
.LCOLDE2:
	.text
.LHOTE2:
	.section	.text.unlikely
.LCOLDB3:
	.text
.LHOTB3:
	.p2align 4,,15
	.globl	dmap_put
	.type	dmap_put, @function
dmap_put:
.LFB40:
	.loc 1 1133 0
	.cfi_startproc
.LVL82:
	pushq	%r12
	.cfi_def_cfa_offset 16
	.cfi_offset 12, -16
	pushq	%rbp
	.cfi_def_cfa_offset 24
	.cfi_offset 6, -24
	movl	%edx, %r12d
	pushq	%rbx
	.cfi_def_cfa_offset 32
	.cfi_offset 3, -32
	movq	%rdi, %rbx
	subq	$32, %rsp
	.cfi_def_cfa_offset 64
	.loc 1 1147 0
	movl	(%rdi), %ebp
	.loc 1 1133 0
	movq	%fs:40, %rax
	movq	%rax, 24(%rsp)
	xorl	%eax, %eax
	.loc 1 1142 0
	movq	$0, 8(%rsp)
	.loc 1 1143 0
	movq	$0, 16(%rsp)
	.loc 1 1147 0
	imull	%edx, %ebp
	movslq	%ebp, %rbp
	addq	24(%rdi), %rbp
.LVL83:
	.loc 1 1149 0
	movq	%rbp, %rdi
.LVL84:
	call	*8(%rbx)
.LVL85:
	.loc 1 1152 0
	leaq	16(%rsp), %rdx
	leaq	8(%rsp), %rsi
	movq	%rbp, %rdi
	call	*144(%rbx)
.LVL86:
	.loc 1 1155 0
	movq	8(%rsp), %rdi
	call	*80(%rbx)
.LVL87:
	.loc 1 1165 0
	movl	168(%rbx), %r8d
	subq	$8, %rsp
	.cfi_def_cfa_offset 72
	movq	56(%rbx), %rcx
	movq	48(%rbx), %rdx
	movq	40(%rbx), %rsi
	movq	32(%rbx), %rdi
	pushq	%r8
	.cfi_def_cfa_offset 80
	movq	64(%rbx), %r8
	pushq	%r12
	.cfi_def_cfa_offset 88
	pushq	%rax
	.cfi_def_cfa_offset 96
	movq	40(%rsp), %r9
	call	map_impl_put
.LVL88:
	.loc 1 1175 0
	addq	$32, %rsp
	.cfi_def_cfa_offset 64
	movq	16(%rsp), %rdi
	call	*136(%rbx)
.LVL89:
	.loc 1 1183 0
	movl	168(%rbx), %r8d
	subq	$8, %rsp
	.cfi_def_cfa_offset 72
	movq	112(%rbx), %rcx
	movq	104(%rbx), %rdx
	movq	96(%rbx), %rsi
	movq	88(%rbx), %rdi
	pushq	%r8
	.cfi_def_cfa_offset 80
	movq	120(%rbx), %r8
	pushq	%r12
	.cfi_def_cfa_offset 88
	pushq	%rax
	.cfi_def_cfa_offset 96
	movq	48(%rsp), %r9
	call	map_impl_put
.LVL90:
	.loc 1 1193 0
	addq	$32, %rsp
	.cfi_def_cfa_offset 64
	.loc 1 1190 0
	addl	$1, 160(%rbx)
.LVL91:
	.loc 1 1193 0
	movq	16(%rsp), %rdx
	movq	8(%rsp), %rsi
	movq	%rbp, %rdi
	call	*152(%rbx)
.LVL92:
	.loc 1 1218 0
	movq	24(%rsp), %rcx
	xorq	%fs:40, %rcx
	jne	.L36
	addq	$32, %rsp
	.cfi_remember_state
	.cfi_def_cfa_offset 32
	movl	$1, %eax
	popq	%rbx
	.cfi_def_cfa_offset 24
.LVL93:
	popq	%rbp
	.cfi_def_cfa_offset 16
.LVL94:
	popq	%r12
	.cfi_def_cfa_offset 8
.LVL95:
	ret
.LVL96:
.L36:
	.cfi_restore_state
	call	__stack_chk_fail
.LVL97:
	.cfi_endproc
.LFE40:
	.size	dmap_put, .-dmap_put
	.section	.text.unlikely
.LCOLDE3:
	.text
.LHOTE3:
	.section	.text.unlikely
.LCOLDB4:
	.text
.LHOTB4:
	.p2align 4,,15
	.globl	dmap_get_value
	.type	dmap_get_value, @function
dmap_get_value:
.LFB41:
	.loc 1 1232 0
	.cfi_startproc
.LVL98:
	.loc 1 1246 0
	imull	(%rdi), %esi
.LVL99:
	movq	8(%rdi), %rax
	movslq	%esi, %rsi
	addq	24(%rdi), %rsi
.LVL100:
	movq	%rdx, %rdi
.LVL101:
	jmp	*%rax
.LVL102:
	.cfi_endproc
.LFE41:
	.size	dmap_get_value, .-dmap_get_value
	.section	.text.unlikely
.LCOLDE4:
	.text
.LHOTE4:
	.section	.text.unlikely
.LCOLDB5:
	.text
.LHOTB5:
	.p2align 4,,15
	.globl	dmap_erase
	.type	dmap_erase, @function
dmap_erase:
.LFB42:
	.loc 1 1633 0
	.cfi_startproc
.LVL103:
	pushq	%r12
	.cfi_def_cfa_offset 16
	.cfi_offset 12, -16
	pushq	%rbp
	.cfi_def_cfa_offset 24
	.cfi_offset 6, -24
	pushq	%rbx
	.cfi_def_cfa_offset 32
	.cfi_offset 3, -32
	movq	%rdi, %rbx
	subq	$48, %rsp
	.cfi_def_cfa_offset 80
	.loc 1 1649 0
	imull	(%rdi), %esi
.LVL104:
	.loc 1 1633 0
	movq	%fs:40, %rax
	movq	%rax, 40(%rsp)
	xorl	%eax, %eax
	.loc 1 1642 0
	movq	$0, 8(%rsp)
	.loc 1 1643 0
	movq	$0, 16(%rsp)
	.loc 1 1651 0
	leaq	24(%rsp), %rdx
	.loc 1 1644 0
	movq	$0, 24(%rsp)
	.loc 1 1645 0
	movq	$0, 32(%rsp)
	.loc 1 1649 0
	movslq	%esi, %rbp
	addq	24(%rdi), %rbp
.LVL105:
	.loc 1 1651 0
	leaq	8(%rsp), %rsi
	movq	%rbp, %rdi
.LVL106:
	call	*144(%rbx)
.LVL107:
	.loc 1 1662 0
	movq	8(%rsp), %rdi
	call	*80(%rbx)
.LVL108:
	.loc 1 1665 0
	subq	$8, %rsp
	.cfi_def_cfa_offset 88
	movq	56(%rbx), %rcx
	movq	48(%rbx), %rdx
	leaq	24(%rsp), %r8
	movq	40(%rbx), %rsi
	movq	72(%rbx), %r9
	movq	32(%rbx), %rdi
	pushq	%r8
	.cfi_def_cfa_offset 96
	movl	168(%rbx), %r8d
	pushq	%r8
	.cfi_def_cfa_offset 104
	pushq	%rax
	.cfi_def_cfa_offset 112
	movq	40(%rsp), %r8
	call	map_impl_erase
.LVL109:
	.loc 1 1673 0
	addq	$32, %rsp
	.cfi_def_cfa_offset 80
	movq	24(%rsp), %rdi
	call	*136(%rbx)
.LVL110:
	.loc 1 1681 0
	subq	$8, %rsp
	.cfi_def_cfa_offset 88
	movq	112(%rbx), %rcx
	movq	128(%rbx), %r9
	leaq	40(%rsp), %r8
	movq	104(%rbx), %rdx
	movq	96(%rbx), %rsi
	movq	88(%rbx), %rdi
	pushq	%r8
	.cfi_def_cfa_offset 96
	movl	168(%rbx), %r8d
	pushq	%r8
	.cfi_def_cfa_offset 104
	pushq	%rax
	.cfi_def_cfa_offset 112
	movq	56(%rsp), %r8
	call	map_impl_erase
.LVL111:
	.loc 1 1689 0
	addq	$32, %rsp
	.cfi_def_cfa_offset 80
	.loc 1 1688 0
	movq	152(%rbx), %r12
.LVL112:
	.loc 1 1689 0
	movq	24(%rsp), %rdx
	movq	8(%rsp), %rsi
	movq	%rbp, %rdi
	call	*%r12
.LVL113:
	.loc 1 1690 0
	movq	32(%rsp), %rdx
	movq	16(%rsp), %rsi
	movq	%rbp, %rdi
	call	*%r12
.LVL114:
	.loc 1 1692 0
	movq	%rbp, %rdi
	call	*16(%rbx)
.LVL115:
	.loc 1 1693 0
	subl	$1, 160(%rbx)
	.loc 1 1709 0
	movq	40(%rsp), %rcx
	xorq	%fs:40, %rcx
	jne	.L41
	addq	$48, %rsp
	.cfi_remember_state
	.cfi_def_cfa_offset 32
	movl	$1, %eax
	popq	%rbx
	.cfi_def_cfa_offset 24
.LVL116:
	popq	%rbp
	.cfi_def_cfa_offset 16
.LVL117:
	popq	%r12
	.cfi_def_cfa_offset 8
.LVL118:
	ret
.LVL119:
.L41:
	.cfi_restore_state
	call	__stack_chk_fail
.LVL120:
	.cfi_endproc
.LFE42:
	.size	dmap_erase, .-dmap_erase
	.section	.text.unlikely
.LCOLDE5:
	.text
.LHOTE5:
	.section	.text.unlikely
.LCOLDB6:
	.text
.LHOTB6:
	.p2align 4,,15
	.globl	dmap_size
	.type	dmap_size, @function
dmap_size:
.LFB43:
	.loc 1 1752 0
	.cfi_startproc
.LVL121:
	.loc 1 1758 0
	movl	160(%rdi), %eax
	.loc 1 1762 0
	ret
	.cfi_endproc
.LFE43:
	.size	dmap_size, .-dmap_size
	.section	.text.unlikely
.LCOLDE6:
	.text
.LHOTE6:
.Letext0:
	.section	.text.unlikely
.Letext_cold0:
	.file 2 "/usr/include/stdint.h"
	.file 3 "lib/containers/map-impl.h"
	.file 4 "lib/containers/map-util.h"
	.file 5 "lib/containers/double-map.h"
	.file 6 "/usr/include/stdlib.h"
	.section	.note.GNU-stack,"",@progbits
