	.file	"expirator.c"
	.text
.Ltext0:
	.section	.text.unlikely,"ax",@progbits
.LCOLDB0:
	.text
.LHOTB0:
	.p2align 4,,15
	.section	.text.unlikely
.Ltext_cold0:
	.text
	.globl	expire_items
	.type	expire_items, @function
expire_items:
.LFB0:
	.file 1 "lib/expirator.c"
	.loc 1 48 0
	.cfi_startproc
.LVL0:
	pushq	%r13
	.cfi_def_cfa_offset 16
	.cfi_offset 13, -16
	pushq	%r12
	.cfi_def_cfa_offset 24
	.cfi_offset 12, -24
	movq	%rsi, %r13
	pushq	%rbp
	.cfi_def_cfa_offset 32
	.cfi_offset 6, -32
	pushq	%rbx
	.cfi_def_cfa_offset 40
	.cfi_offset 3, -40
	movq	%rdi, %r12
	movl	%edx, %ebp
	.loc 1 49 0
	xorl	%ebx, %ebx
	.loc 1 48 0
	subq	$24, %rsp
	.cfi_def_cfa_offset 64
	.loc 1 48 0
	movq	%fs:40, %rax
	movq	%rax, 8(%rsp)
	xorl	%eax, %eax
.LVL1:
	.loc 1 50 0
	movl	$-1, 4(%rsp)
	.loc 1 56 0
	jmp	.L2
.LVL2:
	.p2align 4,,10
	.p2align 3
.L3:
	.loc 1 84 0
	movl	4(%rsp), %esi
	movq	%r13, %rdi
	.loc 1 87 0
	addl	$1, %ebx
.LVL3:
	.loc 1 84 0
	call	dmap_erase
.LVL4:
.L2:
	.loc 1 56 0
	leaq	4(%rsp), %rsi
	movl	%ebp, %edx
	movq	%r12, %rdi
	call	dchain_expire_one_index
.LVL5:
	testl	%eax, %eax
	jne	.L3
	.loc 1 106 0
	movq	8(%rsp), %rcx
	xorq	%fs:40, %rcx
	movl	%ebx, %eax
	jne	.L7
	addq	$24, %rsp
	.cfi_remember_state
	.cfi_def_cfa_offset 40
	popq	%rbx
	.cfi_def_cfa_offset 32
.LVL6:
	popq	%rbp
	.cfi_def_cfa_offset 24
.LVL7:
	popq	%r12
	.cfi_def_cfa_offset 16
.LVL8:
	popq	%r13
	.cfi_def_cfa_offset 8
.LVL9:
	ret
.LVL10:
.L7:
	.cfi_restore_state
	call	__stack_chk_fail
.LVL11:
	.cfi_endproc
.LFE0:
	.size	expire_items, .-expire_items
	.section	.text.unlikely
.LCOLDE0:
	.text
.LHOTE0:
.Letext0:
	.section	.text.unlikely
.Letext_cold0:
	.file 2 "lib/containers/double-map.h"
	.file 3 "lib/containers/double-chain.h"
	.file 4 "/usr/include/stdint.h"
	.section	.note.GNU-stack,"",@progbits
